; Function Attrs: nofree norecurse nosync nounwind memory(argmem: readwrite) uwtable
define internal void @blend_difference_8bit(ptr noundef readonly captures(none) %0, i64 noundef %1, ptr noundef readonly captures(none) %2, i64 noundef %3, ptr noundef writeonly captures(none) %4, i64 noundef %5, i64 noundef %6, i64 noundef %7, ptr noundef readonly captures(none) %8, ptr readnone captures(none) %9) #6 {
  %11 = getelementptr inbounds nuw i8, ptr %8, i64 8
  %12 = load double, ptr %11, align 8, !tbaa !70
  %13 = fptrunc nsz double %12 to float
  %14 = icmp sgt i64 %7, 0
  %15 = icmp sgt i64 %6, 0
  %or.cond = and i1 %14, %15
  br i1 %or.cond, label %.preheader.us, label %._crit_edge48

.preheader.us:                                    ; preds = %10, %._crit_edge.us
  %indvars.iv52 = phi i64 [ %indvars.iv.next53, %._crit_edge.us ], [ 0, %10 ]
  %.03846.us = phi ptr [ %31, %._crit_edge.us ], [ %4, %10 ]
  %.03945.us = phi ptr [ %33, %._crit_edge.us ], [ %2, %10 ]
  %.04044.us = phi ptr [ %32, %._crit_edge.us ], [ %0, %10 ]
  br label %16

16:                                               ; preds = %.preheader.us, %16
  %indvars.iv = phi i64 [ 0, %.preheader.us ], [ %indvars.iv.next, %16 ]
  %17 = getelementptr inbounds nuw i8, ptr %.04044.us, i64 %indvars.iv
  %18 = load i8, ptr %17, align 1, !tbaa !89
  %19 = zext i8 %18 to i32
  %20 = uitofp i8 %18 to float
  %21 = getelementptr inbounds nuw i8, ptr %.03945.us, i64 %indvars.iv
  %22 = load i8, ptr %21, align 1, !tbaa !89
  %23 = zext i8 %22 to i32
  %24 = sub nsw i32 %19, %23
  %25 = tail call i32 @llvm.abs.i32(i32 %24, i1 true)
  %26 = sub nsw i32 %25, %19
  %27 = sitofp i32 %26 to float
  %28 = tail call nsz float @llvm.fmuladd.f32(float %27, float %13, float %20)
  %29 = fptoui float %28 to i8
  %30 = getelementptr inbounds nuw i8, ptr %.03846.us, i64 %indvars.iv
  store i8 %29, ptr %30, align 1, !tbaa !89
  %indvars.iv.next = add nuw nsw i64 %indvars.iv, 1
  %exitcond.not = icmp eq i64 %indvars.iv.next, %6
  br i1 %exitcond.not, label %._crit_edge.us, label %16, !llvm.loop !104

._crit_edge.us:                                   ; preds = %16
  %31 = getelementptr inbounds i8, ptr %.03846.us, i64 %5
  %32 = getelementptr inbounds i8, ptr %.04044.us, i64 %1
  %33 = getelementptr inbounds i8, ptr %.03945.us, i64 %3
  %indvars.iv.next53 = add nuw nsw i64 %indvars.iv52, 1
  %exitcond55.not = icmp eq i64 %indvars.iv.next53, %7
  br i1 %exitcond55.not, label %._crit_edge48, label %.preheader.us, !llvm.loop !105

._crit_edge48:                                    ; preds = %._crit_edge.us, %10
  ret void
}